; Function Attrs: mustprogress nounwind uwtable
define hidden void @_ZN5zxing15HybridBinarizerD2Ev(ptr noundef nonnull align 8 dereferenceable(228) initializes((0, 8), (136, 144), (160, 168), (184, 192)) %0) unnamed_addr #3 align 2 {
  store ptr getelementptr inbounds nuw inrange(-16, 48) (i8, ptr @_ZTVN5zxing15HybridBinarizerE, i64 16), ptr %0, align 8, !tbaa !12
  %2 = getelementptr inbounds nuw i8, ptr %0, i64 184
  store ptr getelementptr inbounds nuw inrange(-16, 16) (i8, ptr @_ZTVN5zxing8ArrayRefIiEE, i64 16), ptr %2, align 8, !tbaa !12
  %3 = getelementptr inbounds nuw i8, ptr %0, i64 200
  %4 = load ptr, ptr %3, align 8, !tbaa !17
  %.not.i = icmp eq ptr %4, null
  br i1 %.not.i, label %_ZN5zxing8ArrayRefIiED2Ev.exit, label %5

5:                                                ; preds = %1
  %6 = getelementptr inbounds nuw i8, ptr %4, i64 8
  %7 = load i32, ptr %6, align 8, !tbaa !9
  %8 = add i32 %7, -1
  store i32 %8, ptr %6, align 8, !tbaa !9
  %9 = icmp eq i32 %8, 0
  br i1 %9, label %10, label %_ZN5zxing8ArrayRefIiED2Ev.exit

10:                                               ; preds = %5
  store i32 -559026175, ptr %6, align 8, !tbaa !9
  %11 = load ptr, ptr %4, align 8, !tbaa !12
  %12 = getelementptr inbounds nuw i8, ptr %11, i64 8
  %13 = load ptr, ptr %12, align 8
  tail call void %13(ptr noundef nonnull align 8 dereferenceable(12) %4) #10
  br label %_ZN5zxing8ArrayRefIiED2Ev.exit

_ZN5zxing8ArrayRefIiED2Ev.exit:                   ; preds = %1, %5, %10
  store ptr null, ptr %3, align 8, !tbaa !17
  %14 = getelementptr inbounds nuw i8, ptr %0, i64 160
  store ptr getelementptr inbounds nuw inrange(-16, 16) (i8, ptr @_ZTVN5zxing8ArrayRefINS_15BINARIZER_BLOCKEEE, i64 16), ptr %14, align 8, !tbaa !12
  %15 = getelementptr inbounds nuw i8, ptr %0, i64 176
  %16 = load ptr, ptr %15, align 8, !tbaa !20
  %.not.i1 = icmp eq ptr %16, null
  br i1 %.not.i1, label %_ZN5zxing8ArrayRefINS_15BINARIZER_BLOCKEED2Ev.exit, label %17

17:                                               ; preds = %_ZN5zxing8ArrayRefIiED2Ev.exit
  %18 = getelementptr inbounds nuw i8, ptr %16, i64 8
  %19 = load i32, ptr %18, align 8, !tbaa !9
  %20 = add i32 %19, -1
  store i32 %20, ptr %18, align 8, !tbaa !9
  %21 = icmp eq i32 %20, 0
  br i1 %21, label %22, label %_ZN5zxing8ArrayRefINS_15BINARIZER_BLOCKEED2Ev.exit

22:                                               ; preds = %17
  store i32 -559026175, ptr %18, align 8, !tbaa !9
  %23 = load ptr, ptr %16, align 8, !tbaa !12
  %24 = getelementptr inbounds nuw i8, ptr %23, i64 8
  %25 = load ptr, ptr %24, align 8
  tail call void %25(ptr noundef nonnull align 8 dereferenceable(12) %16) #10
  br label %_ZN5zxing8ArrayRefINS_15BINARIZER_BLOCKEED2Ev.exit

_ZN5zxing8ArrayRefINS_15BINARIZER_BLOCKEED2Ev.exit: ; preds = %_ZN5zxing8ArrayRefIiED2Ev.exit, %17, %22
  store ptr null, ptr %15, align 8, !tbaa !20
  %26 = getelementptr inbounds nuw i8, ptr %0, i64 136
  store ptr getelementptr inbounds nuw inrange(-16, 16) (i8, ptr @_ZTVN5zxing8ArrayRefIiEE, i64 16), ptr %26, align 8, !tbaa !12
  %27 = getelementptr inbounds nuw i8, ptr %0, i64 152
  %28 = load ptr, ptr %27, align 8, !tbaa !17
  %.not.i2 = icmp eq ptr %28, null
  br i1 %.not.i2, label %_ZN5zxing8ArrayRefIiED2Ev.exit3, label %29

29:                                               ; preds = %_ZN5zxing8ArrayRefINS_15BINARIZER_BLOCKEED2Ev.exit
  %30 = getelementptr inbounds nuw i8, ptr %28, i64 8
  %31 = load i32, ptr %30, align 8, !tbaa !9
  %32 = add i32 %31, -1
  store i32 %32, ptr %30, align 8, !tbaa !9
  %33 = icmp eq i32 %32, 0
  br i1 %33, label %34, label %_ZN5zxing8ArrayRefIiED2Ev.exit3

34:                                               ; preds = %29
  store i32 -559026175, ptr %30, align 8, !tbaa !9
  %35 = load ptr, ptr %28, align 8, !tbaa !12
  %36 = getelementptr inbounds nuw i8, ptr %35, i64 8
  %37 = load ptr, ptr %36, align 8
  tail call void %37(ptr noundef nonnull align 8 dereferenceable(12) %28) #10
  br label %_ZN5zxing8ArrayRefIiED2Ev.exit3

_ZN5zxing8ArrayRefIiED2Ev.exit3:                  ; preds = %_ZN5zxing8ArrayRefINS_15BINARIZER_BLOCKEED2Ev.exit, %29, %34
  store ptr null, ptr %27, align 8, !tbaa !17
  %38 = getelementptr inbounds nuw i8, ptr %0, i64 128
  %39 = load ptr, ptr %38, align 8, !tbaa !14
  %.not.i4 = icmp eq ptr %39, null
  br i1 %.not.i4, label %_ZN5zxing3RefINS_10ByteMatrixEED2Ev.exit, label %40

40:                                               ; preds = %_ZN5zxing8ArrayRefIiED2Ev.exit3
  %41 = getelementptr inbounds nuw i8, ptr %39, i64 8
  %42 = load i32, ptr %41, align 8, !tbaa !9
  %43 = add i32 %42, -1
  store i32 %43, ptr %41, align 8, !tbaa !9
  %44 = icmp eq i32 %43, 0
  br i1 %44, label %45, label %_ZN5zxing3RefINS_10ByteMatrixEED2Ev.exit

45:                                               ; preds = %40
  store i32 -559026175, ptr %41, align 8, !tbaa !9
  %46 = load ptr, ptr %39, align 8, !tbaa !12
  %47 = getelementptr inbounds nuw i8, ptr %46, i64 8
  %48 = load ptr, ptr %47, align 8
  tail call void %48(ptr noundef nonnull align 8 dereferenceable(12) %39) #10
  br label %_ZN5zxing3RefINS_10ByteMatrixEED2Ev.exit

_ZN5zxing3RefINS_10ByteMatrixEED2Ev.exit:         ; preds = %_ZN5zxing8ArrayRefIiED2Ev.exit3, %40, %45
  tail call void @_ZN5zxing24GlobalHistogramBinarizerD2Ev(ptr noundef nonnull align 8 dereferenceable(121) %0) #10
  ret void
}